; Function Attrs: mustprogress uwtable
define dso_local noundef ptr @_ZNK4Luau8Frontend15getSourceModuleERKNSt7__cxx1112basic_stringIcSt11char_traitsIcESaIcEEE(ptr noundef nonnull align 8 dereferenceable(1784) %0, ptr noundef nonnull align 8 dereferenceable(32) %1) local_unnamed_addr #5 align 2 {
  %3 = getelementptr inbounds nuw i8, ptr %0, i64 1584
  %4 = tail call ptr @_ZNSt10_HashtableINSt7__cxx1112basic_stringIcSt11char_traitsIcESaIcEEESt4pairIKS5_St10shared_ptrIN4Luau12SourceModuleEEESaISC_ENSt8__detail10_Select1stESt8equal_toIS5_ESt4hashIS5_ENSE_18_Mod_range_hashingENSE_20_Default_ranged_hashENSE_20_Prime_rehash_policyENSE_17_Hashtable_traitsILb1ELb0ELb1EEEE4findERS7_(ptr noundef nonnull align 8 dereferenceable(56) %3, ptr noundef nonnull align 8 dereferenceable(32) %1)
  %.not.i = icmp eq ptr %4, null
  br i1 %.not.i, label %_ZN4Luau8Frontend15getSourceModuleERKNSt7__cxx1112basic_stringIcSt11char_traitsIcESaIcEEE.exit, label %5

5:                                                ; preds = %2
  %6 = getelementptr inbounds nuw i8, ptr %4, i64 40
  %7 = load ptr, ptr %6, align 8, !tbaa !504
  br label %_ZN4Luau8Frontend15getSourceModuleERKNSt7__cxx1112basic_stringIcSt11char_traitsIcESaIcEEE.exit

_ZN4Luau8Frontend15getSourceModuleERKNSt7__cxx1112basic_stringIcSt11char_traitsIcESaIcEEE.exit: ; preds = %2, %5
  %.0.i = phi ptr [ %7, %5 ], [ null, %2 ]
  ret ptr %.0.i
}